; Function Attrs: mustprogress uwtable
define i32 @gguf_get_kv_type(ptr noundef readonly captures(none) %0, i64 noundef %1) local_unnamed_addr #2 {
  %3 = icmp sgt i64 %1, -1
  br i1 %3, label %4, label %14

4:                                                ; preds = %2
  %5 = getelementptr inbounds nuw i8, ptr %0, i64 8
  %6 = getelementptr inbounds nuw i8, ptr %0, i64 16
  %7 = load ptr, ptr %6, align 8, !tbaa !49
  %8 = load ptr, ptr %5, align 8, !tbaa !48
  %9 = ptrtoint ptr %7 to i64
  %10 = ptrtoint ptr %8 to i64
  %11 = sub i64 %9, %10
  %12 = sdiv exact i64 %11, 88
  %13 = icmp slt i64 %1, %12
  br i1 %13, label %15, label %14

14:                                               ; preds = %4, %2
  tail call void (ptr, i32, ptr, ...) @ggml_abort(ptr noundef nonnull @.str.28, i32 noundef 768, ptr noundef nonnull @.str.29, ptr noundef nonnull @.str.53) #33
  unreachable

15:                                               ; preds = %4
  %16 = getelementptr inbounds nuw %struct.gguf_kv, ptr %8, i64 %1
  %17 = getelementptr inbounds nuw i8, ptr %16, i64 32
  %18 = load i8, ptr %17, align 8, !tbaa !178, !range !179, !noundef !174
  %19 = trunc nuw i8 %18 to i1
  br i1 %19, label %23, label %20

20:                                               ; preds = %15
  %21 = getelementptr inbounds nuw i8, ptr %16, i64 36
  %22 = load i32, ptr %21, align 4, !tbaa !17
  br label %23

23:                                               ; preds = %15, %20
  %24 = phi i32 [ %22, %20 ], [ 9, %15 ]
  ret i32 %24
}